; Function Attrs: nounwind uwtable
define ptr @l_Lean_Elab_Term_MatchExpr_getFunNamesToMatch(ptr noundef %0) local_unnamed_addr #0 {
  %2 = load ptr, ptr @l_Lean_Elab_Term_MatchExpr_getFunNamesToMatch___closed__1, align 8, !tbaa !4
  %3 = ptrtoint ptr %0 to i64
  %4 = and i64 %3, 1
  %.not = icmp eq i64 %4, 0
  br i1 %.not, label %5, label %lean_inc.exit

5:                                                ; preds = %1
  %.val.i = load i32, ptr %0, align 4, !tbaa !8
  %6 = icmp sgt i32 %.val.i, 0
  br i1 %6, label %7, label %9, !prof !11

7:                                                ; preds = %5
  %8 = add nuw i32 %.val.i, 1
  store i32 %8, ptr %0, align 4, !tbaa !8
  br label %12

9:                                                ; preds = %5
  %.not.i9 = icmp eq i32 %.val.i, 0
  br i1 %.not.i9, label %12, label %10

10:                                               ; preds = %9
  tail call void @lean_inc_ref_cold(ptr noundef nonnull %0) #6
  br label %12

lean_inc.exit:                                    ; preds = %1
  %11 = tail call ptr @l_List_forIn_x27_loop___at_Lean_Elab_Term_MatchExpr_getFunNamesToMatch___spec__2(ptr poison, ptr nonnull poison, ptr poison, ptr noundef %0, ptr noundef %2, ptr nonnull poison)
  br label %lean_dec.exit

12:                                               ; preds = %10, %9, %7
  %13 = tail call ptr @l_List_forIn_x27_loop___at_Lean_Elab_Term_MatchExpr_getFunNamesToMatch___spec__2(ptr nonnull poison, ptr nonnull poison, ptr nonnull poison, ptr noundef nonnull %0, ptr noundef %2, ptr nonnull poison)
  %14 = load i32, ptr %0, align 4, !tbaa !8
  %15 = icmp sgt i32 %14, 1
  br i1 %15, label %16, label %18, !prof !11

16:                                               ; preds = %12
  %17 = add nsw i32 %14, -1
  store i32 %17, ptr %0, align 4, !tbaa !8
  br label %lean_dec.exit

18:                                               ; preds = %12
  %.not.i = icmp eq i32 %14, 0
  br i1 %.not.i, label %lean_dec.exit, label %19

19:                                               ; preds = %18
  tail call void @lean_dec_ref_cold(ptr noundef nonnull %0) #6
  br label %lean_dec.exit

lean_dec.exit:                                    ; preds = %19, %18, %16, %lean_inc.exit
  %20 = phi ptr [ %11, %lean_inc.exit ], [ %13, %16 ], [ %13, %18 ], [ %13, %19 ]
  %21 = tail call ptr @lean_array_to_list(ptr noundef %20) #6
  ret ptr %21
}